ARM GAS  C:\Users\pxc\AppData\Local\Temp\cc229ne8.s 			page 1


   1              		.syntax unified
   2              		.cpu cortex-m3
   3              		.fpu softvfp
   4              		.eabi_attribute 20, 1
   5              		.eabi_attribute 21, 1
   6              		.eabi_attribute 23, 3
   7              		.eabi_attribute 24, 1
   8              		.eabi_attribute 25, 1
   9              		.eabi_attribute 26, 1
  10              		.eabi_attribute 30, 1
  11              		.eabi_attribute 34, 1
  12              		.eabi_attribute 18, 4
  13              		.thumb
  14              		.file	"main.c"
  15              		.text
  16              	.Ltext0:
  17              		.cfi_sections	.debug_frame
  18              		.section	.text.DT_Send_RCData,"ax",%progbits
  19              		.align	2
  20              		.global	DT_Send_RCData
  21              		.thumb
  22              		.thumb_func
  23              		.type	DT_Send_RCData, %function
  24              	DT_Send_RCData:
  25              	.LFB64:
  26              		.file 1 ".\\main.c"
   1:.\main.c      **** /* ========================================
   2:.\main.c      ****  *
   3:.\main.c      ****  * Copyright YOUR COMPANY, THE YEAR
   4:.\main.c      ****  * All Rights Reserved
   5:.\main.c      ****  * UNPUBLISHED, LICENSED SOFTWARE.
   6:.\main.c      ****  *
   7:.\main.c      ****  * CONFIDENTIAL AND PROPRIETARY INFORMATION
   8:.\main.c      ****  * WHICH IS THE PROPERTY OF your company.
   9:.\main.c      ****  *
  10:.\main.c      ****  * ========================================
  11:.\main.c      **** */
  12:.\main.c      **** #include <project.h>
  13:.\main.c      **** #include "i2c.h"
  14:.\main.c      **** #include "i2c_core.h"
  15:.\main.c      **** #include "MLX90614.h"
  16:.\main.c      **** #define Addr 0x00
  17:.\main.c      **** #define BYTE0(dwTemp)       ( *( (char *)(&dwTemp)	  ) )
  18:.\main.c      **** #define BYTE1(dwTemp)       ( *( (char *)(&dwTemp) + 1) )
  19:.\main.c      **** #define BYTE2(dwTemp)       ( *( (char *)(&dwTemp) + 2) )
  20:.\main.c      **** #define BYTE3(dwTemp)       ( *( (char *)(&dwTemp) + 3) )
  21:.\main.c      **** uint8 data_to_send[50];	//发送数据缓存
  22:.\main.c      **** void DT_Send_RCData(int16 T1,int16 T2,int16 T3,int16 T4,int16 T5,int16 T6,int16 T7,int16 T8);
  23:.\main.c      **** uint8 cammand[2] = {0x53,0x00};
  24:.\main.c      **** uint8 cammand1[2] = {0x01,0x02};
  25:.\main.c      **** uint8 cammand_clear[2] = {0x00,0x00};
  26:.\main.c      **** int16 T1;
  27:.\main.c      **** int16 T2;
  28:.\main.c      **** int16 T3;
  29:.\main.c      **** int16 T4;
  30:.\main.c      **** int16 T5;
  31:.\main.c      **** int16 T6;
ARM GAS  C:\Users\pxc\AppData\Local\Temp\cc229ne8.s 			page 2


  32:.\main.c      **** int16 T7;
  33:.\main.c      **** int16 T8;
  34:.\main.c      **** uint8 Addr1 = 0x0; 
  35:.\main.c      **** uint8 Addr2 = 0x0; 
  36:.\main.c      **** uint8 id_1 ;
  37:.\main.c      **** uint8 T_temp[13] ;
  38:.\main.c      **** int main()
  39:.\main.c      **** {
  40:.\main.c      ****     CyGlobalIntEnable; /* Enable global interrupts. */
  41:.\main.c      ****     
  42:.\main.c      ****     /* Place your initialization/startup code here (e.g. MyInst_Start()) */
  43:.\main.c      ****     SYS_I2C_Init();
  44:.\main.c      **** //    I2C_Write(0, 0x22, cammand_clear, 2 );
  45:.\main.c      **** //    I2C_Write(0, 0x22, cammand1, 2 );
  46:.\main.c      ****     CyDelay(100);
  47:.\main.c      ****     UART_net_Init();
  48:.\main.c      ****     UART_net_Start();
  49:.\main.c      ****     isr_rx_net_Start();
  50:.\main.c      ****     UART_net_PutString("UART_INIT_OK!\n");
  51:.\main.c      ****     I2C_Read(0, 0x22, &Addr2, 1 );
  52:.\main.c      **** //    if(1)
  53:.\main.c      **** //    {
  54:.\main.c      **** //    I2C_Write(0, 0x2e, cammand_clear, 2 );
  55:.\main.c      **** //    CyDelay(1000);
  56:.\main.c      **** //    I2C_Write(0, 0x2e, cammand, 2 );
  57:.\main.c      **** //    CyDelay(1000);
  58:.\main.c      **** // //config 
  59:.\main.c      **** //   id_1= I2C_Read(0, 0x2e, &Addr1, 1 );
  60:.\main.c      **** //   id_1= I2C_Read( 0x51, 0x2e, &Addr2, 1 );
  61:.\main.c      **** //
  62:.\main.c      **** //    }
  63:.\main.c      ****    // I2C_Write( 0, 0x0e, &I2C1, 1 );
  64:.\main.c      **** 
  65:.\main.c      ****  
  66:.\main.c      ****     for(;;)
  67:.\main.c      ****     {
  68:.\main.c      ****         /* Place your application code here. */
  69:.\main.c      **** 
  70:.\main.c      ****          //state = mlx90614_read_out(0x0);
  71:.\main.c      ****         // id_1=I2C_Read(0, 0x2E, &Addr1, 1 );
  72:.\main.c      ****         CyDelay(30);
  73:.\main.c      ****    CyDelay(3);
  74:.\main.c      ****     T1 = mlx90614_read_out(0x51);
  75:.\main.c      **** 
  76:.\main.c      ****    CyDelay(3);
  77:.\main.c      ****     T2 = mlx90614_read_out(0x52);
  78:.\main.c      ****     CyDelay(3);
  79:.\main.c      ****     T3 = mlx90614_read_out(0x53);
  80:.\main.c      **** 
  81:.\main.c      ****     CyDelay(3);
  82:.\main.c      ****     T4 = mlx90614_read_out(0x54);
  83:.\main.c      **** 
  84:.\main.c      ****     CyDelay(3);
  85:.\main.c      ****     T5 = mlx90614_read_out(0x55);
  86:.\main.c      ****     CyDelay(3);
  87:.\main.c      ****     T6 = mlx90614_read_out(0x55);
  88:.\main.c      ****     
ARM GAS  C:\Users\pxc\AppData\Local\Temp\cc229ne8.s 			page 3


  89:.\main.c      ****     CyDelay(3);
  90:.\main.c      ****     T7 = mlx90614_read_out(0x55);
  91:.\main.c      ****     
  92:.\main.c      ****     CyDelay(3);
  93:.\main.c      ****     T8 = mlx90614_read_out(0x55);
  94:.\main.c      ****     DT_Send_RCData( T1,T2,T3,T4,T5,T6,T7,T8);
  95:.\main.c      ****     
  96:.\main.c      ****     }
  97:.\main.c      **** }
  98:.\main.c      **** void DT_Send_RCData(int16 T1,int16 T2,int16 T3,int16 T4,int16 T5,int16 T6,int16 T7,int16 T8)
  99:.\main.c      **** {
  27              		.loc 1 99 0
  28              		.cfi_startproc
  29              		@ args = 16, pretend = 0, frame = 8
  30              		@ frame_needed = 0, uses_anonymous_args = 0
  31              	.LVL0:
  32 0000 70B5     		push	{r4, r5, r6, lr}
  33              		.cfi_def_cfa_offset 16
  34              		.cfi_offset 4, -16
  35              		.cfi_offset 5, -12
  36              		.cfi_offset 6, -8
  37              		.cfi_offset 14, -4
  38 0002 82B0     		sub	sp, sp, #8
  39              		.cfi_def_cfa_offset 24
  40 0004 ADF80600 		strh	r0, [sp, #6]	@ movhi
  41 0008 ADF80410 		strh	r1, [sp, #4]	@ movhi
  42 000c ADF80220 		strh	r2, [sp, #2]	@ movhi
  43 0010 ADF80030 		strh	r3, [sp]	@ movhi
  44              	.LVL1:
 100:.\main.c      **** 	uint8 _cnt=0;
 101:.\main.c      **** 	
 102:.\main.c      **** 	data_to_send[_cnt++]=0xAA;
  45              		.loc 1 102 0
  46 0014 214D     		ldr	r5, .L5
  47 0016 AA24     		movs	r4, #170
  48 0018 2C70     		strb	r4, [r5]
  49              	.LVL2:
 103:.\main.c      **** 	data_to_send[_cnt++]=0xAA;
  50              		.loc 1 103 0
  51 001a 6C70     		strb	r4, [r5, #1]
  52              	.LVL3:
 104:.\main.c      **** 	data_to_send[_cnt++]=0x02;
  53              		.loc 1 104 0
  54 001c 0224     		movs	r4, #2
  55 001e AC70     		strb	r4, [r5, #2]
  56              	.LVL4:
 105:.\main.c      **** 	data_to_send[_cnt++]=0;
  57              		.loc 1 105 0
  58 0020 0024     		movs	r4, #0
  59              	.LVL5:
 106:.\main.c      **** 	data_to_send[_cnt++]=BYTE1(T1);
  60              		.loc 1 106 0
  61 0022 C0F30726 		ubfx	r6, r0, #8, #8
  62 0026 2E71     		strb	r6, [r5, #4]
  63              	.LVL6:
 107:.\main.c      **** 	data_to_send[_cnt++]=BYTE0(T1);
  64              		.loc 1 107 0
ARM GAS  C:\Users\pxc\AppData\Local\Temp\cc229ne8.s 			page 4


  65 0028 6871     		strb	r0, [r5, #5]
  66              	.LVL7:
 108:.\main.c      **** 	data_to_send[_cnt++]=BYTE1(T2);
  67              		.loc 1 108 0
  68 002a C1F30720 		ubfx	r0, r1, #8, #8
  69              	.LVL8:
  70 002e A871     		strb	r0, [r5, #6]
  71              	.LVL9:
 109:.\main.c      **** 	data_to_send[_cnt++]=BYTE0(T2);
  72              		.loc 1 109 0
  73 0030 E971     		strb	r1, [r5, #7]
  74              	.LVL10:
 110:.\main.c      **** 	data_to_send[_cnt++]=BYTE1(T3);
  75              		.loc 1 110 0
  76 0032 C2F30721 		ubfx	r1, r2, #8, #8
  77              	.LVL11:
  78 0036 2972     		strb	r1, [r5, #8]
  79              	.LVL12:
 111:.\main.c      **** 	data_to_send[_cnt++]=BYTE0(T3);
  80              		.loc 1 111 0
  81 0038 6A72     		strb	r2, [r5, #9]
  82              	.LVL13:
 112:.\main.c      **** 	data_to_send[_cnt++]=BYTE1(T4);
  83              		.loc 1 112 0
  84 003a C3F30722 		ubfx	r2, r3, #8, #8
  85              	.LVL14:
  86 003e AA72     		strb	r2, [r5, #10]
  87              	.LVL15:
 113:.\main.c      **** 	data_to_send[_cnt++]=BYTE0(T4);
  88              		.loc 1 113 0
  89 0040 EB72     		strb	r3, [r5, #11]
  90              	.LVL16:
 114:.\main.c      **** 	data_to_send[_cnt++]=BYTE1(T5);
  91              		.loc 1 114 0
  92 0042 9DF81930 		ldrb	r3, [sp, #25]	@ zero_extendqisi2
  93              	.LVL17:
  94 0046 2B73     		strb	r3, [r5, #12]
  95              	.LVL18:
 115:.\main.c      **** 	data_to_send[_cnt++]=BYTE0(T5);
  96              		.loc 1 115 0
  97 0048 9DF81830 		ldrb	r3, [sp, #24]	@ zero_extendqisi2
  98 004c 6B73     		strb	r3, [r5, #13]
  99              	.LVL19:
 116:.\main.c      ****     data_to_send[_cnt++]=BYTE1(T6);
 100              		.loc 1 116 0
 101 004e 9DF81D30 		ldrb	r3, [sp, #29]	@ zero_extendqisi2
 102 0052 AB73     		strb	r3, [r5, #14]
 103              	.LVL20:
 117:.\main.c      **** 	data_to_send[_cnt++]=BYTE0(T6);
 104              		.loc 1 117 0
 105 0054 9DF81C30 		ldrb	r3, [sp, #28]	@ zero_extendqisi2
 106 0058 EB73     		strb	r3, [r5, #15]
 107              	.LVL21:
 118:.\main.c      **** 	data_to_send[_cnt++]=BYTE1(T7);
 108              		.loc 1 118 0
 109 005a 9DF82130 		ldrb	r3, [sp, #33]	@ zero_extendqisi2
 110 005e 2B74     		strb	r3, [r5, #16]
ARM GAS  C:\Users\pxc\AppData\Local\Temp\cc229ne8.s 			page 5


 111              	.LVL22:
 119:.\main.c      **** 	data_to_send[_cnt++]=BYTE0(T7);
 112              		.loc 1 119 0
 113 0060 9DF82030 		ldrb	r3, [sp, #32]	@ zero_extendqisi2
 114 0064 6B74     		strb	r3, [r5, #17]
 115              	.LVL23:
 120:.\main.c      **** 	data_to_send[_cnt++]=BYTE1(T8);
 116              		.loc 1 120 0
 117 0066 9DF82530 		ldrb	r3, [sp, #37]	@ zero_extendqisi2
 118 006a AB74     		strb	r3, [r5, #18]
 119              	.LVL24:
 121:.\main.c      **** 	data_to_send[_cnt++]=BYTE0(T8);
 120              		.loc 1 121 0
 121 006c 9DF82430 		ldrb	r3, [sp, #36]	@ zero_extendqisi2
 122 0070 EB74     		strb	r3, [r5, #19]
 122:.\main.c      **** 
 123:.\main.c      **** 	data_to_send[3] = _cnt-4;
 123              		.loc 1 123 0
 124 0072 1023     		movs	r3, #16
 125 0074 EB70     		strb	r3, [r5, #3]
 126              	.LVL25:
 124:.\main.c      **** 	
 125:.\main.c      **** 	uint8 sum = 0;
 126:.\main.c      ****     uint8 i=0;
 127:.\main.c      **** 	for( i=0;i<_cnt;i++)
 127              		.loc 1 127 0
 128 0076 2346     		mov	r3, r4
 125:.\main.c      ****     uint8 i=0;
 129              		.loc 1 125 0
 130 0078 2246     		mov	r2, r4
 131              		.loc 1 127 0
 132 007a 05E0     		b	.L2
 133              	.LVL26:
 134              	.L3:
 128:.\main.c      **** 		sum += data_to_send[i];
 135              		.loc 1 128 0 discriminator 3
 136 007c 0749     		ldr	r1, .L5
 137 007e C95C     		ldrb	r1, [r1, r3]	@ zero_extendqisi2
 138 0080 0A44     		add	r2, r2, r1
 139              	.LVL27:
 140 0082 D2B2     		uxtb	r2, r2
 141              	.LVL28:
 127:.\main.c      **** 		sum += data_to_send[i];
 142              		.loc 1 127 0 discriminator 3
 143 0084 0133     		adds	r3, r3, #1
 144              	.LVL29:
 145 0086 DBB2     		uxtb	r3, r3
 146              	.LVL30:
 147              	.L2:
 127:.\main.c      **** 		sum += data_to_send[i];
 148              		.loc 1 127 0 is_stmt 0 discriminator 1
 149 0088 132B     		cmp	r3, #19
 150 008a F7D9     		bls	.L3
 151              	.LVL31:
 129:.\main.c      **** 	
 130:.\main.c      **** 	data_to_send[_cnt++]=sum;
 152              		.loc 1 130 0 is_stmt 1
ARM GAS  C:\Users\pxc\AppData\Local\Temp\cc229ne8.s 			page 6


 153 008c 0348     		ldr	r0, .L5
 154 008e 0275     		strb	r2, [r0, #20]
 131:.\main.c      **** 	
 132:.\main.c      **** 	UART_net_PutArray(data_to_send, _cnt);
 155              		.loc 1 132 0
 156 0090 1521     		movs	r1, #21
 157 0092 FFF7FEFF 		bl	UART_net_PutArray
 158              	.LVL32:
 133:.\main.c      **** }
 159              		.loc 1 133 0
 160 0096 02B0     		add	sp, sp, #8
 161              		.cfi_def_cfa_offset 16
 162              	.LVL33:
 163              		@ sp needed
 164 0098 70BD     		pop	{r4, r5, r6, pc}
 165              	.LVL34:
 166              	.L6:
 167 009a 00BF     		.align	2
 168              	.L5:
 169 009c 00000000 		.word	data_to_send
 170              		.cfi_endproc
 171              	.LFE64:
 172              		.size	DT_Send_RCData, .-DT_Send_RCData
 173              		.section	.text.main,"ax",%progbits
 174              		.align	2
 175              		.global	main
 176              		.thumb
 177              		.thumb_func
 178              		.type	main, %function
 179              	main:
 180              	.LFB63:
  39:.\main.c      ****     CyGlobalIntEnable; /* Enable global interrupts. */
 181              		.loc 1 39 0
 182              		.cfi_startproc
 183              		@ Volatile: function does not return.
 184              		@ args = 0, pretend = 0, frame = 0
 185              		@ frame_needed = 0, uses_anonymous_args = 0
 186 0000 2DE98048 		push	{r7, fp, lr}
 187              		.cfi_def_cfa_offset 12
 188              		.cfi_offset 7, -12
 189              		.cfi_offset 11, -8
 190              		.cfi_offset 14, -4
 191 0004 85B0     		sub	sp, sp, #20
 192              		.cfi_def_cfa_offset 32
  40:.\main.c      ****     
 193              		.loc 1 40 0
 194              	@ 40 ".\main.c" 1
 195 0006 62B6     		CPSIE   i
 196              	@ 0 "" 2
  43:.\main.c      **** //    I2C_Write(0, 0x22, cammand_clear, 2 );
 197              		.loc 1 43 0
 198              		.thumb
 199 0008 FFF7FEFF 		bl	SYS_I2C_Init
 200              	.LVL35:
  46:.\main.c      ****     UART_net_Init();
 201              		.loc 1 46 0
 202 000c 6420     		movs	r0, #100
ARM GAS  C:\Users\pxc\AppData\Local\Temp\cc229ne8.s 			page 7


 203 000e FFF7FEFF 		bl	CyDelay
 204              	.LVL36:
  47:.\main.c      ****     UART_net_Start();
 205              		.loc 1 47 0
 206 0012 FFF7FEFF 		bl	UART_net_Init
 207              	.LVL37:
  48:.\main.c      ****     isr_rx_net_Start();
 208              		.loc 1 48 0
 209 0016 FFF7FEFF 		bl	UART_net_Start
 210              	.LVL38:
  49:.\main.c      ****     UART_net_PutString("UART_INIT_OK!\n");
 211              		.loc 1 49 0
 212 001a FFF7FEFF 		bl	isr_rx_net_Start
 213              	.LVL39:
  50:.\main.c      ****     I2C_Read(0, 0x22, &Addr2, 1 );
 214              		.loc 1 50 0
 215 001e 3548     		ldr	r0, .L10
 216 0020 FFF7FEFF 		bl	UART_net_PutString
 217              	.LVL40:
  51:.\main.c      **** //    if(1)
 218              		.loc 1 51 0
 219 0024 0020     		movs	r0, #0
 220 0026 2221     		movs	r1, #34
 221 0028 334A     		ldr	r2, .L10+4
 222 002a 0123     		movs	r3, #1
 223 002c FFF7FEFF 		bl	I2C_Read
 224              	.LVL41:
 225              	.L8:
  72:.\main.c      ****    CyDelay(3);
 226              		.loc 1 72 0 discriminator 1
 227 0030 1E20     		movs	r0, #30
 228 0032 FFF7FEFF 		bl	CyDelay
 229              	.LVL42:
  73:.\main.c      ****     T1 = mlx90614_read_out(0x51);
 230              		.loc 1 73 0 discriminator 1
 231 0036 0320     		movs	r0, #3
 232 0038 FFF7FEFF 		bl	CyDelay
 233              	.LVL43:
  74:.\main.c      **** 
 234              		.loc 1 74 0 discriminator 1
 235 003c 5120     		movs	r0, #81
 236 003e FFF7FEFF 		bl	mlx90614_read_out
 237              	.LVL44:
 238 0042 DFF8C8B0 		ldr	fp, .L10+24
 239 0046 ABF80000 		strh	r0, [fp]	@ movhi
  76:.\main.c      ****     T2 = mlx90614_read_out(0x52);
 240              		.loc 1 76 0 discriminator 1
 241 004a 0320     		movs	r0, #3
 242 004c FFF7FEFF 		bl	CyDelay
 243              	.LVL45:
  77:.\main.c      ****     CyDelay(3);
 244              		.loc 1 77 0 discriminator 1
 245 0050 5220     		movs	r0, #82
 246 0052 FFF7FEFF 		bl	mlx90614_read_out
 247              	.LVL46:
 248 0056 DFF8B8A0 		ldr	r10, .L10+28
 249 005a AAF80000 		strh	r0, [r10]	@ movhi
ARM GAS  C:\Users\pxc\AppData\Local\Temp\cc229ne8.s 			page 8


  78:.\main.c      ****     T3 = mlx90614_read_out(0x53);
 250              		.loc 1 78 0 discriminator 1
 251 005e 0320     		movs	r0, #3
 252 0060 FFF7FEFF 		bl	CyDelay
 253              	.LVL47:
  79:.\main.c      **** 
 254              		.loc 1 79 0 discriminator 1
 255 0064 5320     		movs	r0, #83
 256 0066 FFF7FEFF 		bl	mlx90614_read_out
 257              	.LVL48:
 258 006a DFF8A890 		ldr	r9, .L10+32
 259 006e A9F80000 		strh	r0, [r9]	@ movhi
  81:.\main.c      ****     T4 = mlx90614_read_out(0x54);
 260              		.loc 1 81 0 discriminator 1
 261 0072 0320     		movs	r0, #3
 262 0074 FFF7FEFF 		bl	CyDelay
 263              	.LVL49:
  82:.\main.c      **** 
 264              		.loc 1 82 0 discriminator 1
 265 0078 5420     		movs	r0, #84
 266 007a FFF7FEFF 		bl	mlx90614_read_out
 267              	.LVL50:
 268 007e DFF89880 		ldr	r8, .L10+36
 269 0082 A8F80000 		strh	r0, [r8]	@ movhi
  84:.\main.c      ****     T5 = mlx90614_read_out(0x55);
 270              		.loc 1 84 0 discriminator 1
 271 0086 0320     		movs	r0, #3
 272 0088 FFF7FEFF 		bl	CyDelay
 273              	.LVL51:
  85:.\main.c      ****     CyDelay(3);
 274              		.loc 1 85 0 discriminator 1
 275 008c 5520     		movs	r0, #85
 276 008e FFF7FEFF 		bl	mlx90614_read_out
 277              	.LVL52:
 278 0092 1A4F     		ldr	r7, .L10+8
 279 0094 3880     		strh	r0, [r7]	@ movhi
  86:.\main.c      ****     T6 = mlx90614_read_out(0x55);
 280              		.loc 1 86 0 discriminator 1
 281 0096 0320     		movs	r0, #3
 282 0098 FFF7FEFF 		bl	CyDelay
 283              	.LVL53:
  87:.\main.c      ****     
 284              		.loc 1 87 0 discriminator 1
 285 009c 5520     		movs	r0, #85
 286 009e FFF7FEFF 		bl	mlx90614_read_out
 287              	.LVL54:
 288 00a2 174E     		ldr	r6, .L10+12
 289 00a4 3080     		strh	r0, [r6]	@ movhi
  89:.\main.c      ****     T7 = mlx90614_read_out(0x55);
 290              		.loc 1 89 0 discriminator 1
 291 00a6 0320     		movs	r0, #3
 292 00a8 FFF7FEFF 		bl	CyDelay
 293              	.LVL55:
  90:.\main.c      ****     
 294              		.loc 1 90 0 discriminator 1
 295 00ac 5520     		movs	r0, #85
 296 00ae FFF7FEFF 		bl	mlx90614_read_out
ARM GAS  C:\Users\pxc\AppData\Local\Temp\cc229ne8.s 			page 9


 297              	.LVL56:
 298 00b2 144D     		ldr	r5, .L10+16
 299 00b4 2880     		strh	r0, [r5]	@ movhi
  92:.\main.c      ****     T8 = mlx90614_read_out(0x55);
 300              		.loc 1 92 0 discriminator 1
 301 00b6 0320     		movs	r0, #3
 302 00b8 FFF7FEFF 		bl	CyDelay
 303              	.LVL57:
  93:.\main.c      ****     DT_Send_RCData( T1,T2,T3,T4,T5,T6,T7,T8);
 304              		.loc 1 93 0 discriminator 1
 305 00bc 5520     		movs	r0, #85
 306 00be FFF7FEFF 		bl	mlx90614_read_out
 307              	.LVL58:
 308 00c2 84B2     		uxth	r4, r0
 309 00c4 104B     		ldr	r3, .L10+20
 310 00c6 1C80     		strh	r4, [r3]	@ movhi
  94:.\main.c      ****     
 311              		.loc 1 94 0 discriminator 1
 312 00c8 BBF90000 		ldrsh	r0, [fp]
 313 00cc BAF90010 		ldrsh	r1, [r10]
 314 00d0 B9F90020 		ldrsh	r2, [r9]
 315 00d4 B8F90030 		ldrsh	r3, [r8]
 316 00d8 B7F90070 		ldrsh	r7, [r7]
 317 00dc 0097     		str	r7, [sp]
 318 00de B6F90060 		ldrsh	r6, [r6]
 319 00e2 0196     		str	r6, [sp, #4]
 320 00e4 B5F90050 		ldrsh	r5, [r5]
 321 00e8 0295     		str	r5, [sp, #8]
 322 00ea 24B2     		sxth	r4, r4
 323 00ec 0394     		str	r4, [sp, #12]
 324 00ee FFF7FEFF 		bl	DT_Send_RCData
 325              	.LVL59:
  96:.\main.c      **** }
 326              		.loc 1 96 0 discriminator 1
 327 00f2 9DE7     		b	.L8
 328              	.L11:
 329              		.align	2
 330              	.L10:
 331 00f4 00000000 		.word	.LC0
 332 00f8 00000000 		.word	.LANCHOR0
 333 00fc 00000000 		.word	T5
 334 0100 00000000 		.word	T6
 335 0104 00000000 		.word	T7
 336 0108 00000000 		.word	T8
 337 010c 00000000 		.word	T1
 338 0110 00000000 		.word	T2
 339 0114 00000000 		.word	T3
 340 0118 00000000 		.word	T4
 341              		.cfi_endproc
 342              	.LFE63:
 343              		.size	main, .-main
 344              		.comm	T_temp,13,4
 345              		.comm	id_1,1,1
 346              		.global	Addr2
 347              		.global	Addr1
 348              		.comm	T8,2,2
 349              		.comm	T7,2,2
ARM GAS  C:\Users\pxc\AppData\Local\Temp\cc229ne8.s 			page 10


 350              		.comm	T6,2,2
 351              		.comm	T5,2,2
 352              		.comm	T4,2,2
 353              		.comm	T3,2,2
 354              		.comm	T2,2,2
 355              		.comm	T1,2,2
 356              		.global	cammand_clear
 357              		.global	cammand1
 358              		.global	cammand
 359              		.comm	data_to_send,50,4
 360              		.data
 361              		.align	2
 362              		.type	cammand1, %object
 363              		.size	cammand1, 2
 364              	cammand1:
 365 0000 01       		.byte	1
 366 0001 02       		.byte	2
 367 0002 0000     		.space	2
 368              		.type	cammand, %object
 369              		.size	cammand, 2
 370              	cammand:
 371 0004 53       		.byte	83
 372 0005 00       		.byte	0
 373 0006 0000     		.section	.rodata.str1.4,"aMS",%progbits,1
 374              		.align	2
 375              	.LC0:
 376 0000 55415254 		.ascii	"UART_INIT_OK!\012\000"
 376      5F494E49 
 376      545F4F4B 
 376      210A00
 377 000f 00       		.bss
 378              		.align	2
 379              		.set	.LANCHOR0,. + 0
 380              		.type	Addr2, %object
 381              		.size	Addr2, 1
 382              	Addr2:
 383 0000 00       		.space	1
 384              		.type	Addr1, %object
 385              		.size	Addr1, 1
 386              	Addr1:
 387 0001 00       		.space	1
 388 0002 0000     		.space	2
 389              		.type	cammand_clear, %object
 390              		.size	cammand_clear, 2
 391              	cammand_clear:
 392 0004 0000     		.space	2
 393 0006 0000     		.text
 394              	.Letext0:
 395              		.file 2 "c:\\program files (x86)\\cypress\\psoc creator\\3.3\\psoc creator\\import\\gnu\\arm\\4.9.
 396              		.file 3 "c:\\program files (x86)\\cypress\\psoc creator\\3.3\\psoc creator\\import\\gnu\\arm\\4.9.
 397              		.file 4 "Generated_Source\\PSoC5/cytypes.h"
 398              		.file 5 "Generated_Source\\PSoC5/core_cm3.h"
 399              		.file 6 "Generated_Source\\PSoC5/UART_net.h"
 400              		.file 7 "Generated_Source\\PSoC5/CyLib.h"
 401              		.file 8 ".\\i2c_core.h"
 402              		.file 9 "Generated_Source\\PSoC5/isr_rx_net.h"
 403              		.file 10 ".\\MLX90614.h"
ARM GAS  C:\Users\pxc\AppData\Local\Temp\cc229ne8.s 			page 11

