ARM GAS  C:\Users\pxc\AppData\Local\Temp\ccoog7Og.s 			page 1


   1              		.syntax unified
   2              		.cpu cortex-m3
   3              		.fpu softvfp
   4              		.eabi_attribute 20, 1
   5              		.eabi_attribute 21, 1
   6              		.eabi_attribute 23, 3
   7              		.eabi_attribute 24, 1
   8              		.eabi_attribute 25, 1
   9              		.eabi_attribute 26, 1
  10              		.eabi_attribute 30, 1
  11              		.eabi_attribute 34, 1
  12              		.eabi_attribute 18, 4
  13              		.thumb
  14              		.file	"MLX90614.c"
  15              		.text
  16              	.Ltext0:
  17              		.cfi_sections	.debug_frame
  18              		.section	.text.mlx90614_read_in,"ax",%progbits
  19              		.align	2
  20              		.global	mlx90614_read_in
  21              		.thumb
  22              		.thumb_func
  23              		.type	mlx90614_read_in, %function
  24              	mlx90614_read_in:
  25              	.LFB63:
  26              		.file 1 ".\\MLX90614.c"
   1:.\MLX90614.c  **** #include <stdio.h>
   2:.\MLX90614.c  **** #include "i2c_core.h"
   3:.\MLX90614.c  **** #include "MLX90614.h"
   4:.\MLX90614.c  **** 
   5:.\MLX90614.c  **** int mlx90614_read_in( unsigned char addr )
   6:.\MLX90614.c  **** {
  27              		.loc 1 6 0
  28              		.cfi_startproc
  29              		@ args = 0, pretend = 0, frame = 8
  30              		@ frame_needed = 0, uses_anonymous_args = 0
  31              	.LVL0:
  32 0000 00B5     		push	{lr}
  33              		.cfi_def_cfa_offset 4
  34              		.cfi_offset 14, -4
  35 0002 83B0     		sub	sp, sp, #12
  36              		.cfi_def_cfa_offset 16
   7:.\MLX90614.c  **** 		unsigned char I2CData[2];
   8:.\MLX90614.c  **** 		int temp;
   9:.\MLX90614.c  **** 		int size;
  10:.\MLX90614.c  **** 		
  11:.\MLX90614.c  **** 		size = I2C_Read( addr, 6, I2CData, 2 );
  37              		.loc 1 11 0
  38 0004 0621     		movs	r1, #6
  39 0006 01AA     		add	r2, sp, #4
  40 0008 0223     		movs	r3, #2
  41 000a FFF7FEFF 		bl	I2C_Read
  42              	.LVL1:
  12:.\MLX90614.c  **** 		
  13:.\MLX90614.c  **** 		if( size != 2 )
  43              		.loc 1 13 0
  44 000e 0228     		cmp	r0, #2
ARM GAS  C:\Users\pxc\AppData\Local\Temp\ccoog7Og.s 			page 2


  45 0010 0AD1     		bne	.L3
  14:.\MLX90614.c  **** 		{
  15:.\MLX90614.c  **** 			//	printf("mlx90614 read failed!\r\n");
  16:.\MLX90614.c  **** 				return -1;
  17:.\MLX90614.c  **** 		}
  18:.\MLX90614.c  **** 		temp = (I2CData[1] << 8 | I2CData[0])*2;
  46              		.loc 1 18 0
  47 0012 9DF80500 		ldrb	r0, [sp, #5]	@ zero_extendqisi2
  48              	.LVL2:
  49 0016 9DF80430 		ldrb	r3, [sp, #4]	@ zero_extendqisi2
  50 001a 43EA0020 		orr	r0, r3, r0, lsl #8
  51 001e 4000     		lsls	r0, r0, #1
  52              	.LVL3:
  19:.\MLX90614.c  **** 		temp -= 27315;
  53              		.loc 1 19 0
  54 0020 A0F5D540 		sub	r0, r0, #27264
  55              	.LVL4:
  56 0024 3338     		subs	r0, r0, #51
  57              	.LVL5:
  20:.\MLX90614.c  **** 	//    UART_net_PutArray(I2CData,2);
  21:.\MLX90614.c  **** 		return temp;
  58              		.loc 1 21 0
  59 0026 01E0     		b	.L2
  60              	.LVL6:
  61              	.L3:
  16:.\MLX90614.c  **** 		}
  62              		.loc 1 16 0
  63 0028 4FF0FF30 		mov	r0, #-1
  64              	.LVL7:
  65              	.L2:
  22:.\MLX90614.c  **** }
  66              		.loc 1 22 0
  67 002c 03B0     		add	sp, sp, #12
  68              		.cfi_def_cfa_offset 4
  69              		@ sp needed
  70 002e 5DF804FB 		ldr	pc, [sp], #4
  71              		.cfi_endproc
  72              	.LFE63:
  73              		.size	mlx90614_read_in, .-mlx90614_read_in
  74 0032 00BF     		.section	.text.mlx90614_read_out,"ax",%progbits
  75              		.align	2
  76              		.global	mlx90614_read_out
  77              		.thumb
  78              		.thumb_func
  79              		.type	mlx90614_read_out, %function
  80              	mlx90614_read_out:
  81              	.LFB64:
  23:.\MLX90614.c  **** int mlx90614_read_out( unsigned char addr )
  24:.\MLX90614.c  **** {
  82              		.loc 1 24 0
  83              		.cfi_startproc
  84              		@ args = 0, pretend = 0, frame = 8
  85              		@ frame_needed = 0, uses_anonymous_args = 0
  86              	.LVL8:
  87 0000 00B5     		push	{lr}
  88              		.cfi_def_cfa_offset 4
  89              		.cfi_offset 14, -4
ARM GAS  C:\Users\pxc\AppData\Local\Temp\ccoog7Og.s 			page 3


  90 0002 83B0     		sub	sp, sp, #12
  91              		.cfi_def_cfa_offset 16
  25:.\MLX90614.c  **** 		unsigned char I2CData[2];
  26:.\MLX90614.c  **** 		int size;
  27:.\MLX90614.c  **** 		int temp;
  28:.\MLX90614.c  **** 		
  29:.\MLX90614.c  **** 		size = I2C_Read( addr, 7, I2CData, 2 );
  92              		.loc 1 29 0
  93 0004 0721     		movs	r1, #7
  94 0006 01AA     		add	r2, sp, #4
  95 0008 0223     		movs	r3, #2
  96 000a FFF7FEFF 		bl	I2C_Read
  97              	.LVL9:
  30:.\MLX90614.c  **** 		
  31:.\MLX90614.c  **** 		if( size != 2 )
  98              		.loc 1 31 0
  99 000e 0228     		cmp	r0, #2
 100 0010 0AD1     		bne	.L7
  32:.\MLX90614.c  **** 		{
  33:.\MLX90614.c  **** 			//	printf("mlx90614 read failed!\r\n");
  34:.\MLX90614.c  **** 				return -1;
  35:.\MLX90614.c  **** 		}
  36:.\MLX90614.c  **** 		temp = (I2CData[1] << 8 | I2CData[0])*2;
 101              		.loc 1 36 0
 102 0012 9DF80500 		ldrb	r0, [sp, #5]	@ zero_extendqisi2
 103              	.LVL10:
 104 0016 9DF80430 		ldrb	r3, [sp, #4]	@ zero_extendqisi2
 105 001a 43EA0020 		orr	r0, r3, r0, lsl #8
 106 001e 4000     		lsls	r0, r0, #1
 107              	.LVL11:
  37:.\MLX90614.c  **** 		temp -= 27315;
 108              		.loc 1 37 0
 109 0020 A0F5D540 		sub	r0, r0, #27264
 110              	.LVL12:
 111 0024 3338     		subs	r0, r0, #51
 112              	.LVL13:
  38:.\MLX90614.c  **** 		
  39:.\MLX90614.c  **** 		return temp;
 113              		.loc 1 39 0
 114 0026 01E0     		b	.L6
 115              	.LVL14:
 116              	.L7:
  34:.\MLX90614.c  **** 		}
 117              		.loc 1 34 0
 118 0028 4FF0FF30 		mov	r0, #-1
 119              	.LVL15:
 120              	.L6:
  40:.\MLX90614.c  **** }
 121              		.loc 1 40 0
 122 002c 03B0     		add	sp, sp, #12
 123              		.cfi_def_cfa_offset 4
 124              		@ sp needed
 125 002e 5DF804FB 		ldr	pc, [sp], #4
 126              		.cfi_endproc
 127              	.LFE64:
 128              		.size	mlx90614_read_out, .-mlx90614_read_out
 129 0032 00BF     		.text
ARM GAS  C:\Users\pxc\AppData\Local\Temp\ccoog7Og.s 			page 4


 130              	.Letext0:
 131              		.file 2 "c:\\program files (x86)\\cypress\\psoc creator\\3.3\\psoc creator\\import\\gnu\\arm\\4.9.
 132              		.file 3 "c:\\program files (x86)\\cypress\\psoc creator\\3.3\\psoc creator\\import\\gnu\\arm\\4.9.
 133              		.file 4 "Generated_Source\\PSoC5/core_cm3.h"
 134              		.file 5 ".\\i2c_core.h"